; Function Attrs: mustprogress nofree norecurse nosync nounwind willreturn memory(argmem: readwrite) uwtable
define dso_local void @_ZN5clang15ObjCMessageExpr8childrenEv(ptr dead_on_unwind noalias nocapture writable writeonly sret(%"class.llvm::iterator_range") align 8 %0, ptr noundef nonnull align 8 dereferenceable(40) %1) local_unnamed_addr #6 align 2 {
  %3 = getelementptr inbounds nuw i8, ptr %1, i64 24
  %4 = load i32, ptr %3, align 8
  %5 = and i32 %4, 16711680
  %6 = icmp eq i32 %5, 65536
  %.0.v = select i1 %6, i64 40, i64 48
  %.0 = getelementptr inbounds i8, ptr %1, i64 %.0.v
  %7 = getelementptr inbounds i8, ptr %1, i64 48
  %8 = and i32 %4, 65535
  %9 = zext nneg i32 %8 to i64
  %10 = getelementptr inbounds ptr, ptr %7, i64 %9
  store ptr %.0, ptr %0, align 8
  %.sroa.4.0..sroa_idx = getelementptr inbounds i8, ptr %0, i64 8
  store i64 0, ptr %.sroa.4.0..sroa_idx, align 8
  %11 = getelementptr inbounds nuw i8, ptr %0, i64 24
  store ptr %10, ptr %11, align 8
  %.sroa.47.0..sroa_idx = getelementptr inbounds i8, ptr %0, i64 32
  store i64 0, ptr %.sroa.47.0..sroa_idx, align 8
  ret void
}